Certificate:
    Data:
        Version: 1 (0x0)
        Serial Number: 13602743971714966775 (0xbcc6a79264a824f7)
    Signature Algorithm: sha256WithRSAEncryption
        Issuer: CN=localhost
        Validity
            Not Before: Nov  1 00:34:25 2021 GMT
            Not After : Dec  1 00:34:25 2021 GMT
        Subject: CN=localhost
        Subject Public Key Info:
            Public Key Algorithm: rsaEncryption
                Public-Key: (2048 bit)
                Modulus:
                    00:dc:e8:98:e7:b2:45:2f:94:1c:e7:51:77:c5:1f:
                    4a:15:ac:1c:13:33:ea:f5:c1:aa:3e:9c:26:21:39:
                    79:13:6b:53:9f:ef:de:9c:29:4e:63:78:96:f7:f4:
                    e0:86:de:d7:32:19:fe:59:1e:64:3a:f6:d3:8c:0e:
                    9d:3b:02:90:85:07:fc:18:6f:03:ff:37:4f:4c:a0:
                    cf:6c:9c:db:67:1c:46:e3:d5:72:49:83:fd:76:c8:
                    82:68:07:f1:58:90:dc:1a:fb:82:ee:d0:79:ad:2d:
                    98:b5:48:35:51:0e:e3:9e:62:aa:b7:27:5a:bc:da:
                    f1:da:a5:60:9a:2e:ac:6c:d9:be:f9:4c:41:6e:ab:
                    d0:a8:f8:22:e2:e5:6b:15:b8:04:2a:0a:7f:3b:90:
                    8f:33:2c:56:f4:ef:e0:16:dd:f0:d6:a9:7c:a0:a7:
                    ee:b8:bb:08:8c:ee:30:d9:cc:3e:80:73:b6:7f:1c:
                    2a:97:a4:24:54:ff:ba:af:4f:a7:82:59:f6:1f:89:
                    bf:2b:02:42:ce:c3:d0:a2:af:e1:0e:06:32:13:fc:
                    25:1c:76:b8:bd:7b:28:af:e0:29:69:f5:e2:71:33:
                    8a:8a:fa:62:d0:fe:ff:f1:ae:2a:2e:4f:24:eb:97:
                    28:dd:7a:47:3d:8c:51:4b:73:1f:7f:84:1d:3d:8c:
                    15:91
                Exponent: 65537 (0x10001)
    Signature Algorithm: sha256WithRSAEncryption
         0e:46:e9:c7:d6:90:b2:3d:49:5a:17:c0:0c:4e:a7:b0:6f:68:
         1e:06:e0:27:0c:6c:ae:94:de:68:7b:43:21:1c:be:91:0f:0e:
         5f:71:07:a6:6e:9e:b4:ab:38:a1:f4:85:28:b9:cf:2e:67:61:
         84:40:b4:4f:81:96:59:79:2f:bf:40:53:58:db:a3:3e:a9:10:
         92:5a:5c:b7:70:16:4b:84:16:53:b5:df:32:b0:d5:71:c6:af:
         e9:73:4f:af:52:97:a0:5e:60:d0:f0:a0:c8:97:24:63:76:4a:
         ef:37:c0:44:8f:31:29:9a:bc:81:ff:f7:e0:b4:c6:ea:a7:05:
         66:ab:9c:36:4a:df:4a:1d:99:d9:a0:96:ba:ae:3d:9e:ce:5e:
         fa:ec:fd:5a:3c:49:af:49:0d:66:a6:ab:6f:25:fa:90:5b:47:
         0e:d4:fa:10:d8:28:56:34:6b:f4:17:46:6a:99:34:cb:e5:df:
         0b:87:a3:b9:4b:4c:ef:f0:8d:c9:bb:68:96:d3:1f:d2:2f:a9:
         fa:1e:5b:76:83:81:c5:a1:e8:69:6c:03:93:20:c8:77:82:02:
         30:b6:09:08:0e:01:07:e0:5c:ae:06:74:43:21:db:7b:3a:53:
         bc:4e:4f:c5:7c:bc:5a:3c:54:b6:62:d2:5c:78:60:68:3c:3d:
         70:d5:f0:15
-----BEGIN CERTIFICATE-----
MIICpDCCAYwCCQC8xqeSZKgk9zANBgkqhkiG9w0BAQsFADAUMRIwEAYDVQQDDAls
b2NhbGhvc3QwHhcNMjExMTAxMDAzNDI1WhcNMjExMjAxMDAzNDI1WjAUMRIwEAYD
VQQDDAlsb2NhbGhvc3QwggEiMA0GCSqGSIb3DQEBAQUAA4IBDwAwggEKAoIBAQDc
6JjnskUvlBznUXfFH0oVrBwTM+r1wao+nCYhOXkTa1Of796cKU5jeJb39OCG3tcy
Gf5ZHmQ69tOMDp07ApCFB/wYbwP/N09MoM9snNtnHEbj1XJJg/12yIJoB/FYkNwa
+4Lu0HmtLZi1SDVRDuOeYqq3J1q82vHapWCaLqxs2b75TEFuq9Co+CLi5WsVuAQq
Cn87kI8zLFb07+AW3fDWqXygp+64uwiM7jDZzD6Ac7Z/HCqXpCRU/7qvT6eCWfYf
ib8rAkLOw9Cir+EOBjIT/CUcdri9eyiv4Clp9eJxM4qK+mLQ/v/xriouTyTrlyjd
ekc9jFFLcx9/hB09jBWRAgMBAAEwDQYJKoZIhvcNAQELBQADggEBAA5G6cfWkLI9
SVoXwAxOp7BvaB4G4CcMbK6U3mh7QyEcvpEPDl9xB6ZunrSrOKH0hSi5zy5nYYRA
tE+Blll5L79AU1jboz6pEJJaXLdwFkuEFlO13zKw1XHGr+lzT69Sl6BeYNDwoMiX
JGN2Su83wESPMSmavIH/9+C0xuqnBWarnDZK30odmdmglrquPZ7OXvrs/Vo8Sa9J
DWamq28l+pBbRw7U+hDYKFY0a/QXRmqZNMvl3wuHo7lLTO/wjcm7aJbTH9Ivqfoe
W3aDgcWh6GlsA5MgyHeCAjC2CQgOAQfgXK4GdEMh23s6U7xOT8V8vFo8VLZi0lx4
YGg8PXDV8BU=
-----END CERTIFICATE-----
